; Function Attrs: nounwind uwtable
define range(i32 -1, 1) i32 @H5D__flush(ptr noundef %0, i64 noundef %1) local_unnamed_addr #0 {
  %3 = alloca i64, align 8
  %4 = load i8, ptr @H5D_init_g, align 1, !tbaa !3, !range !7, !noundef !8
  %5 = trunc nuw i8 %4 to i1
  %6 = load i8, ptr @H5_libterm_g, align 1, !range !7
  %7 = trunc nuw i8 %6 to i1
  %8 = xor i1 %7, true
  %9 = select i1 %5, i1 true, i1 %8
  br i1 %9, label %10, label %56, !prof !9

10:                                               ; preds = %2
  %11 = load ptr, ptr %0, align 8, !tbaa !81
  %12 = tail call zeroext i1 @H5F_has_feature(ptr noundef %11, i32 noundef 256) #12
  br i1 %12, label %13, label %17

13:                                               ; preds = %10
  %14 = load i64, ptr @H5E_DATASET_g, align 8, !tbaa !10
  %15 = load i64, ptr @H5E_UNSUPPORTED_g, align 8, !tbaa !10
  %16 = tail call i32 (ptr, ptr, i32, i64, i64, ptr, ...) @H5E_printf_stack(ptr noundef nonnull @.str.2, ptr noundef nonnull @__func__.H5D__flush, i32 noundef 3317, i64 noundef %14, i64 noundef %15, ptr noundef nonnull @.str.122) #12
  br label %56

17:                                               ; preds = %10
  call void @llvm.lifetime.start.p0(i64 8, ptr nonnull %3) #12
  store i64 -1, ptr %3, align 8, !tbaa !10
  %18 = getelementptr inbounds nuw i8, ptr %0, i64 8
  %19 = load i64, ptr %18, align 8, !tbaa !82
  call void @H5AC_tag(i64 noundef %19, ptr noundef nonnull %3) #12
  %20 = load i8, ptr @H5D_init_g, align 1, !tbaa !3, !range !7, !noundef !8
  %21 = trunc nuw i8 %20 to i1
  %22 = load i8, ptr @H5_libterm_g, align 1, !range !7
  %23 = trunc nuw i8 %22 to i1
  %24 = xor i1 %23, true
  %25 = select i1 %21, i1 true, i1 %24
  br i1 %25, label %26, label %48, !prof !9

26:                                               ; preds = %17
  %27 = getelementptr inbounds nuw i8, ptr %0, i64 48
  %28 = load ptr, ptr %27, align 8, !tbaa !52
  %29 = getelementptr inbounds nuw i8, ptr %28, i64 8
  %30 = load i8, ptr %29, align 8, !tbaa !101, !range !7, !noundef !8
  %31 = trunc nuw i8 %30 to i1
  br i1 %31, label %48, label %32

32:                                               ; preds = %26
  %33 = getelementptr inbounds nuw i8, ptr %28, i64 256
  %34 = load ptr, ptr %33, align 8, !tbaa !62
  %35 = getelementptr inbounds nuw i8, ptr %34, i64 80
  %36 = load ptr, ptr %35, align 8, !tbaa !102
  %.not.i = icmp eq ptr %36, null
  br i1 %.not.i, label %48, label %37

37:                                               ; preds = %32
  %38 = call i32 %36(ptr noundef nonnull %0) #12
  %39 = icmp slt i32 %38, 0
  br i1 %39, label %40, label %48

40:                                               ; preds = %37
  %41 = load i64, ptr @H5E_DATASET_g, align 8, !tbaa !10
  %42 = load i64, ptr @H5E_CANTFLUSH_g, align 8, !tbaa !10
  %43 = call i32 (ptr, ptr, i32, i64, i64, ptr, ...) @H5E_printf_stack(ptr noundef nonnull @.str.2, ptr noundef nonnull @__func__.H5D__flush_real, i32 noundef 3288, i64 noundef %41, i64 noundef %42, ptr noundef nonnull @.str.121) #12
  %44 = load i64, ptr %3, align 8, !tbaa !10
  call void @H5AC_tag(i64 noundef %44, ptr noundef null) #12
  call void @llvm.lifetime.end.p0(i64 8, ptr nonnull %3) #12
  %45 = load i64, ptr @H5E_DATASET_g, align 8, !tbaa !10
  %46 = load i64, ptr @H5E_CANTFLUSH_g, align 8, !tbaa !10
  %47 = call i32 (ptr, ptr, i32, i64, i64, ptr, ...) @H5E_printf_stack(ptr noundef nonnull @.str.2, ptr noundef nonnull @__func__.H5D__flush, i32 noundef 3321, i64 noundef %45, i64 noundef %46, ptr noundef nonnull @.str.65) #12
  br label %56

48:                                               ; preds = %26, %37, %32, %17
  %49 = load i64, ptr %3, align 8, !tbaa !10
  call void @H5AC_tag(i64 noundef %49, ptr noundef null) #12
  call void @llvm.lifetime.end.p0(i64 8, ptr nonnull %3) #12
  %50 = call i32 @H5O_flush_common(ptr noundef nonnull %0, i64 noundef %1) #12
  %51 = icmp slt i32 %50, 0
  br i1 %51, label %52, label %56

52:                                               ; preds = %48
  %53 = load i64, ptr @H5E_DATASET_g, align 8, !tbaa !10
  %54 = load i64, ptr @H5E_CANTFLUSH_g, align 8, !tbaa !10
  %55 = call i32 (ptr, ptr, i32, i64, i64, ptr, ...) @H5E_printf_stack(ptr noundef nonnull @.str.2, ptr noundef nonnull @__func__.H5D__flush, i32 noundef 3325, i64 noundef %53, i64 noundef %54, ptr noundef nonnull @.str.123) #12
  br label %56

56:                                               ; preds = %13, %40, %52, %48, %2
  %.0 = phi i32 [ -1, %13 ], [ -1, %40 ], [ -1, %52 ], [ 0, %48 ], [ 0, %2 ]
  ret i32 %.0
}